target datalayout = "e-m:e-p270:32:32-p271:32:32-p272:64:64-i64:64-i128:128-f80:128-n8:16:32:64-S128"
target triple = "x86_64-unknown-linux-gnu"

%struct._GObjectClass = type { %struct._GTypeClass, ptr, ptr, ptr, ptr, ptr, ptr, ptr, ptr, ptr, i64, [6 x ptr] }
%struct._GTypeClass = type { i64 }

@dbus_display_console_parent_class = internal global ptr null, align 8
@DBusDisplayConsole_private_offset = internal global i32 0, align 4

; Function Attrs: nounwind sspstrong uwtable
define internal void @dbus_display_console_class_init(ptr noundef %klass) #0 {
entry:
  %klass.addr = alloca ptr, align 8
  %gobject_class = alloca ptr, align 8
  store ptr %klass, ptr %klass.addr, align 8
  %0 = load ptr, ptr %klass.addr, align 8
  %call = call ptr @g_type_check_class_cast(ptr noundef %0, i64 noundef 80)
  store ptr %call, ptr %gobject_class, align 8
  %1 = load ptr, ptr %gobject_class, align 8
  %dispose = getelementptr inbounds %struct._GObjectClass, ptr %1, i32 0, i32 5
  store ptr @dbus_display_console_dispose, ptr %dispose, align 8
  ret void
}

; Function Attrs: nounwind sspstrong uwtable
define internal void @dbus_display_console_class_intern_init(ptr noundef %klass) #0 {
entry:
  %klass.addr = alloca ptr, align 8
  store ptr %klass, ptr %klass.addr, align 8
  %0 = load ptr, ptr %klass.addr, align 8
  %call = call ptr @g_type_class_peek_parent(ptr noundef %0)
  store ptr %call, ptr @dbus_display_console_parent_class, align 8
  %1 = load i32, ptr @DBusDisplayConsole_private_offset, align 4
  %cmp = icmp ne i32 %1, 0
  br i1 %cmp, label %if.then, label %if.end

if.then:                                          ; preds = %entry
  %2 = load ptr, ptr %klass.addr, align 8
  call void @g_type_class_adjust_private_offset(ptr noundef %2, ptr noundef @DBusDisplayConsole_private_offset)
  br label %if.end

if.end:                                           ; preds = %if.then, %entry
  %3 = load ptr, ptr %klass.addr, align 8
  call void @dbus_display_console_class_init(ptr noundef %3)
  ret void
}