; Function Attrs: nounwind sspstrong uwtable
define internal void @dbus_display_console_class_intern_init(ptr noundef %klass) #0 {
entry:
  %call = tail call ptr @g_type_class_peek_parent(ptr noundef %klass) #9
  store ptr %call, ptr @dbus_display_console_parent_class, align 8
  %0 = load i32, ptr @DBusDisplayConsole_private_offset, align 4
  %cmp.not = icmp eq i32 %0, 0
  br i1 %cmp.not, label %if.end, label %if.then

if.then:                                          ; preds = %entry
  tail call void @g_type_class_adjust_private_offset(ptr noundef %klass, ptr noundef nonnull @DBusDisplayConsole_private_offset) #9
  br label %if.end

if.end:                                           ; preds = %if.then, %entry
  %call.i = tail call ptr @g_type_check_class_cast(ptr noundef %klass, i64 noundef 80) #9
  %dispose.i = getelementptr inbounds nuw i8, ptr %call.i, i64 40
  store ptr @dbus_display_console_dispose, ptr %dispose.i, align 8
  ret void
}